; Function Attrs: mustprogress nofree norecurse nosync nounwind willreturn memory(argmem: read) uwtable
define dso_local noundef ptr @_ZNK5clang18DesignatedInitExpr18getArrayRangeStartERKNS0_10DesignatorE(ptr nocapture noundef nonnull readonly align 8 dereferenceable(32) %0, ptr nocapture noundef nonnull readonly align 8 dereferenceable(24) %1) local_unnamed_addr #6 align 2 {
  %3 = getelementptr inbounds nuw i8, ptr %1, i64 8
  %4 = load i32, ptr %3, align 8
  %5 = add i32 %4, 1
  %6 = getelementptr inbounds i8, ptr %0, i64 32
  %7 = zext i32 %5 to i64
  %8 = getelementptr inbounds ptr, ptr %6, i64 %7
  %9 = load ptr, ptr %8, align 8
  ret ptr %9
}